; Function Attrs: mustprogress nounwind uwtable
define hidden void @_ZN5XPageC2ERK14XVirtualMemoryRK15XPhysicalMemory(ptr noundef nonnull align 8 dereferenceable(136) %0, ptr nocapture noundef nonnull readonly align 8 dereferenceable(16) %1, ptr noundef nonnull align 8 dereferenceable(16) %2) unnamed_addr #0 align 2 {
  %4 = getelementptr inbounds i8, ptr %1, i64 8
  %5 = load i64, ptr %4, align 8
  %6 = load i64, ptr %1, align 8
  %7 = sub i64 %5, %6
  %8 = icmp eq i64 %7, 2097152
  %9 = load i64, ptr @XPageSizeMedium, align 8
  %10 = icmp eq i64 %9, %7
  %..i = select i1 %10, i8 1, i8 2
  %.0.i = select i1 %8, i8 0, i8 %..i
  store i8 %.0.i, ptr %0, align 8
  %11 = getelementptr inbounds i8, ptr %0, i64 1
  store i8 -1, ptr %11, align 1
  %12 = getelementptr inbounds i8, ptr %0, i64 4
  store i32 0, ptr %12, align 4
  %13 = getelementptr inbounds i8, ptr %0, i64 8
  tail call void @llvm.memcpy.p0.p0.i64(ptr noundef nonnull align 8 dereferenceable(16) %13, ptr noundef nonnull readonly align 8 dereferenceable(16) %1, i64 16, i1 false)
  %14 = getelementptr inbounds i8, ptr %0, i64 24
  %15 = load i64, ptr %13, align 8
  store volatile i64 %15, ptr %14, align 8
  %cond.i.i = icmp eq i8 %.0.i, 2
  br i1 %cond.i.i, label %_ZN5XPageC2EhRK14XVirtualMemoryRK15XPhysicalMemory.exit, label %_ZNK5XPage22object_alignment_shiftEv.exit.sink.split.i.i

_ZNK5XPage22object_alignment_shiftEv.exit.sink.split.i.i: ; preds = %3
  %16 = getelementptr inbounds i8, ptr %0, i64 16
  %17 = load i64, ptr %16, align 8
  %18 = sub i64 %17, %15
  %19 = load ptr, ptr @XObjectAlignmentSmallShift, align 8
  %spec.select = select i1 %8, ptr %19, ptr @XObjectAlignmentMediumShift
  %20 = load i32, ptr %spec.select, align 4
  %21 = zext nneg i32 %20 to i64
  %22 = lshr i64 %18, %21
  %23 = trunc i64 %22 to i32
  br label %_ZN5XPageC2EhRK14XVirtualMemoryRK15XPhysicalMemory.exit

_ZN5XPageC2EhRK14XVirtualMemoryRK15XPhysicalMemory.exit: ; preds = %3, %_ZNK5XPage22object_alignment_shiftEv.exit.sink.split.i.i
  %.0.i.i = phi i32 [ %23, %_ZNK5XPage22object_alignment_shiftEv.exit.sink.split.i.i ], [ 1, %3 ]
  %24 = getelementptr inbounds i8, ptr %0, i64 32
  tail call void @_ZN8XLiveMapC1Ej(ptr noundef nonnull align 8 dereferenceable(64) %24, i32 noundef %.0.i.i) #8
  %25 = getelementptr inbounds i8, ptr %0, i64 96
  store i64 0, ptr %25, align 8
  %26 = getelementptr inbounds i8, ptr %0, i64 104
  tail call void @_ZN15XPhysicalMemoryC1ERKS_(ptr noundef nonnull align 8 dereferenceable(16) %26, ptr noundef nonnull align 8 dereferenceable(16) %2) #8
  %27 = getelementptr inbounds i8, ptr %0, i64 120
  store ptr %27, ptr %27, align 8
  %28 = getelementptr inbounds i8, ptr %0, i64 128
  store ptr %27, ptr %28, align 8
  ret void
}